target datalayout = "e-m:e-p270:32:32-p271:32:32-p272:64:64-i64:64-i128:128-f80:128-n8:16:32:64-S128"
target triple = "x86_64-pc-linux-gnu"

%struct.FT_ListRec_ = type { ptr, ptr }
%struct.FT_CharMapRec_ = type { ptr, i32, i16, i16 }
%struct.T42_FaceRec_ = type { %struct.FT_FaceRec_, %struct.T1_FontRec_, ptr, ptr, ptr, i64, ptr, [2 x %struct.FT_CharMapRec_], [2 x ptr], %struct.PS_UnicodesRec_ }
%struct.FT_FaceRec_ = type { i64, i64, i64, i64, i64, ptr, ptr, i32, ptr, i32, ptr, %struct.FT_Generic_, %struct.FT_BBox_, i16, i16, i16, i16, i16, i16, i16, i16, ptr, ptr, ptr, ptr, ptr, ptr, %struct.FT_ListRec_, %struct.FT_Generic_, ptr, ptr }
%struct.FT_BBox_ = type { i64, i64, i64, i64 }
%struct.FT_Generic_ = type { ptr, ptr }
%struct.T1_FontRec_ = type { %struct.PS_FontInfoRec_, %struct.PS_FontExtraRec_, %struct.PS_PrivateRec_, ptr, i32, %struct.T1_EncodingRecRec_, ptr, ptr, ptr, i32, ptr, ptr, ptr, i32, ptr, ptr, ptr, i8, i8, %struct.FT_Matrix_, %struct.FT_Vector_, %struct.FT_BBox_, i64, i64 }
%struct.PS_FontInfoRec_ = type { ptr, ptr, ptr, ptr, ptr, i64, i8, i16, i16 }
%struct.PS_FontExtraRec_ = type { i16 }
%struct.PS_PrivateRec_ = type { i32, i32, i8, i8, i8, i8, [14 x i16], [10 x i16], [14 x i16], [10 x i16], i64, i32, i32, [1 x i16], [1 x i16], i8, i8, i8, i8, [13 x i16], [13 x i16], i64, i64, i64, [2 x i16] }
%struct.T1_EncodingRecRec_ = type { i32, i32, i32, ptr, ptr }
%struct.FT_Matrix_ = type { i64, i64, i64, i64 }
%struct.FT_Vector_ = type { i64, i64 }
%struct.PS_UnicodesRec_ = type { %struct.FT_CMapRec_, i32, ptr }
%struct.FT_CMapRec_ = type { %struct.FT_CharMapRec_, ptr }
%struct.FT_GlyphSlotRec_ = type { ptr, ptr, ptr, i32, %struct.FT_Generic_, %struct.FT_Glyph_Metrics_, i64, i64, %struct.FT_Vector_, i32, %struct.FT_Bitmap_, i32, i32, %struct.FT_Outline_, i32, ptr, ptr, i64, i64, i64, ptr, ptr }
%struct.FT_Glyph_Metrics_ = type { i64, i64, i64, i64, i64, i64, i64, i64 }
%struct.FT_Bitmap_ = type { i32, i32, i32, ptr, i16, i8, i8, ptr }
%struct.FT_Outline_ = type { i16, i16, ptr, ptr, ptr, i32 }
%struct.T42_GlyphSlotRec_ = type { %struct.FT_GlyphSlotRec_, ptr }
%struct.FT_Slot_InternalRec_ = type { ptr, i32, i8, %struct.FT_Matrix_, %struct.FT_Vector_, ptr, i32 }

; Function Attrs: nounwind uwtable
define internal i32 @T42_GlyphSlot_Init(ptr noundef %0) #0 {
  %2 = alloca ptr, align 8
  %3 = alloca ptr, align 8
  %4 = alloca ptr, align 8
  %5 = alloca ptr, align 8
  %6 = alloca ptr, align 8
  %7 = alloca ptr, align 8
  %8 = alloca i32, align 4
  store ptr %0, ptr %2, align 8, !tbaa !166
  call void @llvm.lifetime.start.p0(i64 8, ptr %3) #7
  %9 = load ptr, ptr %2, align 8, !tbaa !166
  store ptr %9, ptr %3, align 8, !tbaa !167
  call void @llvm.lifetime.start.p0(i64 8, ptr %4) #7
  %10 = load ptr, ptr %2, align 8, !tbaa !166
  %11 = getelementptr inbounds nuw %struct.FT_GlyphSlotRec_, ptr %10, i32 0, i32 1
  %12 = load ptr, ptr %11, align 8, !tbaa !169
  store ptr %12, ptr %4, align 8, !tbaa !27
  call void @llvm.lifetime.start.p0(i64 8, ptr %5) #7
  %13 = load ptr, ptr %4, align 8, !tbaa !27
  store ptr %13, ptr %5, align 8, !tbaa !33
  call void @llvm.lifetime.start.p0(i64 8, ptr %6) #7
  call void @llvm.lifetime.start.p0(i64 8, ptr %7) #7
  %14 = load ptr, ptr %4, align 8, !tbaa !27
  %15 = getelementptr inbounds nuw %struct.FT_FaceRec_, ptr %14, i32 0, i32 25
  %16 = load ptr, ptr %15, align 8, !tbaa !177
  store ptr %16, ptr %7, align 8, !tbaa !141
  call void @llvm.lifetime.start.p0(i64 4, ptr %8) #7
  store i32 0, ptr %8, align 4, !tbaa !29
  %17 = load ptr, ptr %4, align 8, !tbaa !27
  %18 = getelementptr inbounds nuw %struct.FT_FaceRec_, ptr %17, i32 0, i32 21
  %19 = load ptr, ptr %18, align 8, !tbaa !178
  %20 = icmp ne ptr %19, null
  br i1 %20, label %29, label %21

21:                                               ; preds = %1
  %22 = load ptr, ptr %5, align 8, !tbaa !33
  %23 = getelementptr inbounds nuw %struct.T42_FaceRec_, ptr %22, i32 0, i32 6
  %24 = load ptr, ptr %23, align 8, !tbaa !39
  %25 = getelementptr inbounds nuw %struct.FT_FaceRec_, ptr %24, i32 0, i32 21
  %26 = load ptr, ptr %25, align 8, !tbaa !178
  %27 = load ptr, ptr %3, align 8, !tbaa !167
  %28 = getelementptr inbounds nuw %struct.T42_GlyphSlotRec_, ptr %27, i32 0, i32 1
  store ptr %26, ptr %28, align 8, !tbaa !179
  br label %41

29:                                               ; preds = %1
  %30 = load ptr, ptr %5, align 8, !tbaa !33
  %31 = getelementptr inbounds nuw %struct.T42_FaceRec_, ptr %30, i32 0, i32 6
  %32 = load ptr, ptr %31, align 8, !tbaa !39
  %33 = call i32 @FT_New_GlyphSlot(ptr noundef %32, ptr noundef %6)
  store i32 %33, ptr %8, align 4, !tbaa !29
  %34 = load i32, ptr %8, align 4, !tbaa !29
  %35 = icmp ne i32 %34, 0
  br i1 %35, label %40, label %36

36:                                               ; preds = %29
  %37 = load ptr, ptr %6, align 8, !tbaa !166
  %38 = load ptr, ptr %3, align 8, !tbaa !167
  %39 = getelementptr inbounds nuw %struct.T42_GlyphSlotRec_, ptr %38, i32 0, i32 1
  store ptr %37, ptr %39, align 8, !tbaa !179
  br label %40

40:                                               ; preds = %36, %29
  br label %41

41:                                               ; preds = %40, %21
  %42 = load ptr, ptr %3, align 8, !tbaa !167
  %43 = getelementptr inbounds nuw %struct.T42_GlyphSlotRec_, ptr %42, i32 0, i32 1
  %44 = load ptr, ptr %43, align 8, !tbaa !179
  %45 = getelementptr inbounds nuw %struct.FT_GlyphSlotRec_, ptr %44, i32 0, i32 21
  %46 = load ptr, ptr %45, align 8, !tbaa !181
  %47 = getelementptr inbounds nuw %struct.FT_Slot_InternalRec_, ptr %46, i32 0, i32 0
  %48 = load ptr, ptr %47, align 8, !tbaa !182
  call void @FT_GlyphLoader_Done(ptr noundef %48)
  br label %49

49:                                               ; preds = %41
  %50 = load ptr, ptr %7, align 8, !tbaa !141
  %51 = load ptr, ptr %3, align 8, !tbaa !167
  %52 = getelementptr inbounds nuw %struct.T42_GlyphSlotRec_, ptr %51, i32 0, i32 1
  %53 = load ptr, ptr %52, align 8, !tbaa !179
  %54 = getelementptr inbounds nuw %struct.FT_GlyphSlotRec_, ptr %53, i32 0, i32 21
  %55 = load ptr, ptr %54, align 8, !tbaa !181
  call void @ft_mem_free(ptr noundef %50, ptr noundef %55)
  %56 = load ptr, ptr %3, align 8, !tbaa !167
  %57 = getelementptr inbounds nuw %struct.T42_GlyphSlotRec_, ptr %56, i32 0, i32 1
  %58 = load ptr, ptr %57, align 8, !tbaa !179
  %59 = getelementptr inbounds nuw %struct.FT_GlyphSlotRec_, ptr %58, i32 0, i32 21
  store ptr null, ptr %59, align 8, !tbaa !181
  br label %60

60:                                               ; preds = %49
  br label %61

61:                                               ; preds = %60
  %62 = load ptr, ptr %2, align 8, !tbaa !166
  %63 = getelementptr inbounds nuw %struct.FT_GlyphSlotRec_, ptr %62, i32 0, i32 21
  %64 = load ptr, ptr %63, align 8, !tbaa !181
  %65 = load ptr, ptr %3, align 8, !tbaa !167
  %66 = getelementptr inbounds nuw %struct.T42_GlyphSlotRec_, ptr %65, i32 0, i32 1
  %67 = load ptr, ptr %66, align 8, !tbaa !179
  %68 = getelementptr inbounds nuw %struct.FT_GlyphSlotRec_, ptr %67, i32 0, i32 21
  store ptr %64, ptr %68, align 8, !tbaa !181
  %69 = load i32, ptr %8, align 4, !tbaa !29
  call void @llvm.lifetime.end.p0(i64 4, ptr %8) #7
  call void @llvm.lifetime.end.p0(i64 8, ptr %7) #7
  call void @llvm.lifetime.end.p0(i64 8, ptr %6) #7
  call void @llvm.lifetime.end.p0(i64 8, ptr %5) #7
  call void @llvm.lifetime.end.p0(i64 8, ptr %4) #7
  call void @llvm.lifetime.end.p0(i64 8, ptr %3) #7
  ret i32 %69
}