; Function Attrs: nounwind uwtable
define internal i32 @T42_GlyphSlot_Init(ptr noundef captures(none) %0) #0 {
  %2 = alloca ptr, align 8
  %3 = getelementptr inbounds nuw i8, ptr %0, i64 8
  %4 = load ptr, ptr %3, align 8, !tbaa !202
  call void @llvm.lifetime.start.p0(i64 8, ptr nonnull %2) #13
  %5 = getelementptr inbounds nuw i8, ptr %4, i64 184
  %6 = load ptr, ptr %5, align 8, !tbaa !210
  %7 = getelementptr inbounds nuw i8, ptr %4, i64 152
  %8 = load ptr, ptr %7, align 8, !tbaa !211
  %.not = icmp eq ptr %8, null
  %9 = getelementptr inbounds nuw i8, ptr %4, i64 808
  %10 = load ptr, ptr %9, align 8, !tbaa !19
  br i1 %.not, label %11, label %15

11:                                               ; preds = %1
  %12 = getelementptr inbounds nuw i8, ptr %10, i64 152
  %13 = load ptr, ptr %12, align 8, !tbaa !211
  %14 = getelementptr inbounds nuw i8, ptr %0, i64 304
  store ptr %13, ptr %14, align 8, !tbaa !212
  br label %20

15:                                               ; preds = %1
  %16 = call i32 @FT_New_GlyphSlot(ptr noundef %10, ptr noundef nonnull %2) #13
  %.not17 = icmp eq i32 %16, 0
  br i1 %.not17, label %17, label %._crit_edge

._crit_edge:                                      ; preds = %15
  %.phi.trans.insert = getelementptr inbounds nuw i8, ptr %0, i64 304
  %.pre = load ptr, ptr %.phi.trans.insert, align 8, !tbaa !212
  br label %20

17:                                               ; preds = %15
  %18 = load ptr, ptr %2, align 8, !tbaa !214
  %19 = getelementptr inbounds nuw i8, ptr %0, i64 304
  store ptr %18, ptr %19, align 8, !tbaa !212
  br label %20

20:                                               ; preds = %._crit_edge, %17, %11
  %21 = phi ptr [ %.pre, %._crit_edge ], [ %18, %17 ], [ %13, %11 ]
  %.0 = phi i32 [ %16, %._crit_edge ], [ 0, %17 ], [ 0, %11 ]
  %22 = getelementptr inbounds nuw i8, ptr %0, i64 304
  %23 = getelementptr inbounds nuw i8, ptr %21, i64 296
  %24 = load ptr, ptr %23, align 8, !tbaa !215
  %25 = load ptr, ptr %24, align 8, !tbaa !216
  call void @FT_GlyphLoader_Done(ptr noundef %25) #13
  %26 = load ptr, ptr %22, align 8, !tbaa !212
  %27 = getelementptr inbounds nuw i8, ptr %26, i64 296
  %28 = load ptr, ptr %27, align 8, !tbaa !215
  call void @ft_mem_free(ptr noundef %6, ptr noundef %28) #13
  %29 = load ptr, ptr %22, align 8, !tbaa !212
  %30 = getelementptr inbounds nuw i8, ptr %29, i64 296
  store ptr null, ptr %30, align 8, !tbaa !215
  %31 = getelementptr inbounds nuw i8, ptr %0, i64 296
  %32 = load ptr, ptr %31, align 8, !tbaa !215
  store ptr %32, ptr %30, align 8, !tbaa !215
  call void @llvm.lifetime.end.p0(i64 8, ptr nonnull %2) #13
  ret i32 %.0
}